target datalayout = "e-m:e-p270:32:32-p271:32:32-p272:64:64-i64:64-i128:128-f80:128-n8:16:32:64-S128"
target triple = "x86_64-pc-linux-gnu"

%struct.zrange_result_handler = type { i32, ptr, ptr, ptr, ptr, i32, i32, ptr, ptr, ptr, ptr }

; Function Attrs: nounwind uwtable
define internal void @zrangeResultEmitLongLongToClient(ptr noundef %0, i64 noundef %1, double noundef %2) #0 {
  %4 = alloca ptr, align 8
  %5 = alloca i64, align 8
  %6 = alloca double, align 8
  store ptr %0, ptr %4, align 8, !tbaa !208
  store i64 %1, ptr %5, align 8, !tbaa !99
  store double %2, ptr %6, align 8, !tbaa !9
  %7 = load ptr, ptr %4, align 8, !tbaa !208
  %8 = getelementptr inbounds nuw %struct.zrange_result_handler, ptr %7, i32 0, i32 6
  %9 = load i32, ptr %8, align 4, !tbaa !230
  %10 = icmp ne i32 %9, 0
  br i1 %10, label %11, label %15

11:                                               ; preds = %3
  %12 = load ptr, ptr %4, align 8, !tbaa !208
  %13 = getelementptr inbounds nuw %struct.zrange_result_handler, ptr %12, i32 0, i32 1
  %14 = load ptr, ptr %13, align 8, !tbaa !210
  call void @addReplyArrayLen(ptr noundef %14, i64 noundef 2)
  br label %15

15:                                               ; preds = %11, %3
  %16 = load ptr, ptr %4, align 8, !tbaa !208
  %17 = getelementptr inbounds nuw %struct.zrange_result_handler, ptr %16, i32 0, i32 1
  %18 = load ptr, ptr %17, align 8, !tbaa !210
  %19 = load i64, ptr %5, align 8, !tbaa !99
  call void @addReplyBulkLongLong(ptr noundef %18, i64 noundef %19)
  %20 = load ptr, ptr %4, align 8, !tbaa !208
  %21 = getelementptr inbounds nuw %struct.zrange_result_handler, ptr %20, i32 0, i32 5
  %22 = load i32, ptr %21, align 8, !tbaa !229
  %23 = icmp ne i32 %22, 0
  br i1 %23, label %24, label %29

24:                                               ; preds = %15
  %25 = load ptr, ptr %4, align 8, !tbaa !208
  %26 = getelementptr inbounds nuw %struct.zrange_result_handler, ptr %25, i32 0, i32 1
  %27 = load ptr, ptr %26, align 8, !tbaa !210
  %28 = load double, ptr %6, align 8, !tbaa !9
  call void @addReplyDouble(ptr noundef %27, double noundef %28)
  br label %29

29:                                               ; preds = %24, %15
  ret void
}