; Function Attrs: nounwind uwtable
define internal void @zrangeResultEmitLongLongToClient(ptr noundef readonly captures(none) %0, i64 noundef %1, double noundef %2) #0 {
  %4 = getelementptr inbounds nuw i8, ptr %0, i64 44
  %5 = load i32, ptr %4, align 4, !tbaa !205
  %.not = icmp eq i32 %5, 0
  br i1 %.not, label %9, label %6

6:                                                ; preds = %3
  %7 = getelementptr inbounds nuw i8, ptr %0, i64 8
  %8 = load ptr, ptr %7, align 8, !tbaa !194
  tail call void @addReplyArrayLen(ptr noundef %8, i64 noundef 2) #18
  br label %9

9:                                                ; preds = %6, %3
  %10 = getelementptr inbounds nuw i8, ptr %0, i64 8
  %11 = load ptr, ptr %10, align 8, !tbaa !194
  tail call void @addReplyBulkLongLong(ptr noundef %11, i64 noundef %1) #18
  %12 = getelementptr inbounds nuw i8, ptr %0, i64 40
  %13 = load i32, ptr %12, align 8, !tbaa !204
  %.not6 = icmp eq i32 %13, 0
  br i1 %.not6, label %16, label %14

14:                                               ; preds = %9
  %15 = load ptr, ptr %10, align 8, !tbaa !194
  tail call void @addReplyDouble(ptr noundef %15, double noundef %2) #18
  br label %16

16:                                               ; preds = %14, %9
  ret void
}